(lp1
(dp2
Vbroken_status
p3
I500
sVbroken_url
p4
Vhttp://tbc-python.fossee.aero.iitb.ac.in/convert-notebook/Fluid_Mechanics_by_John_F_Douglass/Chapter_3.ipynb
p5
sa(dp6
Vbroken_status
p7
I500
sVbroken_url
p8
Vhttp://tbc-python.fossee.aero.iitb.ac.in/convert-notebook/Elements_of_Electric_drives/Chapter1_2.ipynb
p9
sa(dp10
Vbroken_status
p11
I500
sVbroken_url
p12
Vhttp://tbc-python.fossee.aero.iitb.ac.in/convert-notebook/Fundamentals_Of_Physical_Chemistry_by_H._D._Crockford,_Samuel_B.Knight/Chapter_20_Radiochemistry.ipynb
p13
sa(dp14
Vbroken_status
p15
I500
sVbroken_url
p16
Vhttp://tbc-python.fossee.aero.iitb.ac.in/convert-notebook/Elements_of_Electric_drives/Chapter3_2.ipynb
p17
sa(dp18
Vbroken_status
p19
I500
sVbroken_url
p20
Vhttp://tbc-python.fossee.aero.iitb.ac.in/convert-notebook/Theory_Of_Machines/ch15.ipynb
p21
sa(dp22
Vbroken_status
p23
I500
sVbroken_url
p24
Vhttp://tbc-python.fossee.aero.iitb.ac.in/convert-notebook/Principles_Of_Electronic_Communication_Systems_by_L_E_Frenzechapter13_1.ipynb
p25
sa(dp26
Vbroken_status
p27
I500
sVbroken_url
p28
Vhttp://tbc-python.fossee.aero.iitb.ac.in/convert-notebook/Fundamentals_Of_Physical_Chemistry_by_H._D._Crockford,_Samuel_B.Knight/Chapter_12_Thermodynamics_Thermodynamic_chemistry.ipynb
p29
sa(dp30
Vbroken_status
p31
I500
sVbroken_url
p32
Vhttp://tbc-python.fossee.aero.iitb.ac.in/convert-notebook/Fundamentals_Of_Physical_Chemistry_by_H._D._Crockford,_Samuel_B.Knight/Chapter_7_Conductivity.ipynb
p33
sa(dp34
Vbroken_status
p35
I500
sVbroken_url
p36
Vhttp://tbc-python.fossee.aero.iitb.ac.in/convert-notebook/Principles_Of_Electronic_Communication_Systems_by_L_E_Frenze/chapter22_1.ipynb
p37
sa(dp38
Vbroken_status
p39
I500
sVbroken_url
p40
Vhttp://tbc-python.fossee.aero.iitb.ac.in/convert-notebook/Fundamentals_Of_Physical_Chemistry_by_H._D._Crockford,_Samuel_B.Knight/Chapter_13_Thermodynamics_Entropy_and_Free_Energy.ipynb
p41
sa(dp42
Vbroken_status
p43
I500
sVbroken_url
p44
Vhttp://tbc-python.fossee.aero.iitb.ac.in/convert-notebook/_Diffusion:_Mass_Transfer_In_Fluid_Systems_by__E._L._Cussler/Chapter_10_Absorption.ipynb
p45
sa(dp46
Vbroken_status
p47
I500
sVbroken_url
p48
Vhttp://tbc-python.fossee.aero.iitb.ac.in/convert-notebook/Aircraft_Structures_for_Engineering_Students/Chapter24_1.ipynb
p49
sa(dp50
Vbroken_status
p51
I500
sVbroken_url
p52
Vhttp://tbc-python.fossee.aero.iitb.ac.in/convert-notebook/Aircraft_Structures_for_Engineering_Students/Chapter20_1.ipynb
p53
sa(dp54
Vbroken_status
p55
I500
sVbroken_url
p56
Vhttp://tbc-python.fossee.aero.iitb.ac.in/convert-notebook/Fundamentals_Of_Physical_Chemistry_by_H._D._Crockford,_Samuel_B.Knight/Chapter_9_Ionic_Equilibria_and_Buffer_Action.ipynb
p57
sa(dp58
Vbroken_status
p59
I500
sVbroken_url
p60
Vhttp://tbc-python.fossee.aero.iitb.ac.in/convert-notebook/_Optical_Fiber_Communication_by_V._S._Bagad/Chapter02-Optical_Fiber_for_Telecommunication.ipynb
p61
sa(dp62
Vbroken_status
p63
I500
sVbroken_url
p64
Vhttp://tbc-python.fossee.aero.iitb.ac.in/convert-notebook/Aircraft_Structures_for_Engineering_Students/Chapter01_1.ipynb
p65
sa.