(lp1
(dp2
Vchapter_urls
p3
Vhttp://tbc-python.fossee.aero.iitb.ac.in/convert-notebook/Beginning_C_By_Ivon_Horton/chapter13.ipynb
p4
sVnumber_of_errors
p5
I1
sVchapter_name
p6
VChapter 13: The Preprocessor and Debugging
p7
sa(dp8
Vchapter_urls
p9
Vhttp://tbc-python.fossee.aero.iitb.ac.in/convert-notebook/Schaum's_Outlines:_Programming_with_C++/ch6.ipynb
p10
sVnumber_of_errors
p11
I2
sVchapter_name
p12
VChapter 6: Arrays
p13
sa(dp14
Vchapter_urls
p15
Vhttp://tbc-python.fossee.aero.iitb.ac.in/convert-notebook/Schaum's_Outlines:_Programming_with_C++/ch4.ipynb
p16
sVnumber_of_errors
p17
I1
sVchapter_name
p18
VChapter 4: Iteration
p19
sa(dp20
Vchapter_urls
p21
Vhttp://tbc-python.fossee.aero.iitb.ac.in/convert-notebook/The_C_Book/Chapter2.ipynb
p22
sVnumber_of_errors
p23
I1
sVchapter_name
p24
VChapter 2: Variables and Arithmetic
p25
sa(dp26
Vchapter_urls
p27
Vhttp://tbc-python.fossee.aero.iitb.ac.in/convert-notebook/Mastering_C/chapter8.ipynb
p28
sVnumber_of_errors
p29
I1
sVchapter_name
p30
VChapter 8: Pointers
p31
sa(dp32
Vchapter_urls
p33
Vhttp://tbc-python.fossee.aero.iitb.ac.in/convert-notebook/Practical_C_Programming/Chapter_13_1.ipynb
p34
sVnumber_of_errors
p35
I1
sVchapter_name
p36
VChapter 13: Simple pointers
p37
sa(dp38
Vchapter_urls
p39
Vhttp://tbc-python.fossee.aero.iitb.ac.in/convert-notebook/Programming_in_C/Chapter_17.ipynb
p40
sVnumber_of_errors
p41
I1
sVchapter_name
p42
VChapter 17: Miscellaneous and Advanced Features
p43
sa(dp44
Vchapter_urls
p45
Vhttp://tbc-python.fossee.aero.iitb.ac.in/convert-notebook/Programming_in_C/Chapter_16.ipynb
p46
sVnumber_of_errors
p47
I2
sVchapter_name
p48
VChapter 16: Input and Output Operations in Python
p49
sa(dp50
Vchapter_urls
p51
Vhttp://tbc-python.fossee.aero.iitb.ac.in/convert-notebook/C++_Demystified:_A_Self-Teaching_Guide/chapter11.ipynb
p52
sVnumber_of_errors
p53
I1
sVchapter_name
p54
VChapter 11 - What\u2019s the Address? Pointers
p55
sa(dp56
Vchapter_urls
p57
Vhttp://tbc-python.fossee.aero.iitb.ac.in/convert-notebook/ANSI_C_Programming/chapter12.ipynb
p58
sVnumber_of_errors
p59
I3
sVchapter_name
p60
VCHAPTER 12:FILE INPUT/OUTPUT
p61
sa(dp62
Vchapter_urls
p63
Vhttp://tbc-python.fossee.aero.iitb.ac.in/convert-notebook/C_Programming:_A_Modern_Approach_by_K._N._King/Chapter9_1.ipynb
p64
sVnumber_of_errors
p65
I1
sVchapter_name
p66
VChapter 9: Functions
p67
sa(dp68
Vchapter_urls
p69
Vhttp://tbc-python.fossee.aero.iitb.ac.in/convert-notebook/_Mastering_C++_by_K_R_Venugopal_and_Rajkumar_Buyya/Chapter19-ExceptionHandling_1.ipynb
p70
sVnumber_of_errors
p71
I1
sVchapter_name
p72
VChapter 19-Exception Handling
p73
sa(dp74
Vchapter_urls
p75
Vhttp://tbc-python.fossee.aero.iitb.ac.in/convert-notebook/Programming_With_Java_A_Primer/chapter17.ipynb
p76
sVnumber_of_errors
p77
I1
sVchapter_name
p78
VChapter 17: Assertion & Design by Contract
p79
sa(dp80
Vchapter_urls
p81
Vhttp://tbc-python.fossee.aero.iitb.ac.in/convert-notebook/How_to_think_like_a_computer_scientist_by_Allen_B_Downey/ch15.ipynb
p82
sVnumber_of_errors
p83
I2
sVchapter_name
p84
VChapter 15 : File Input/Output and apmatrixes
p85
sa(dp86
Vchapter_urls
p87
Vhttp://tbc-python.fossee.aero.iitb.ac.in/convert-notebook/Structured_Programing_with_C++/Chapter5.ipynb
p88
sVnumber_of_errors
p89
I1
sVchapter_name
p90
VChapter 5 : Strings
p91
sa(dp92
Vchapter_urls
p93
Vhttp://tbc-python.fossee.aero.iitb.ac.in/convert-notebook/Programming_With_Java_A_Primer/chapter13.ipynb
p94
sVnumber_of_errors
p95
I1
sVchapter_name
p96
VChapter 13: Managing Errors & Exceptions
p97
sa.